; Function Attrs: mustprogress uwtable
define hidden void @_ZN2dd11bdd_manager6mk_mulERKNS_4bddvERK8rational(ptr noalias sret(%"class.dd::bddv") align 8 %agg.result, ptr noundef nonnull align 8 dereferenceable(728) %this, ptr noundef nonnull align 8 dereferenceable(16) %a, ptr noundef nonnull align 8 dereferenceable(32) %val) local_unnamed_addr #3 align 2 personality ptr @__gxx_personality_v0 {
entry:
  %b = alloca %class.svector.7, align 8
  store ptr null, ptr %b, align 8
  br label %for.cond

for.cond:                                         ; preds = %for.inc, %entry
  %i.0 = phi i32 [ 0, %entry ], [ %inc, %for.inc ]
  %0 = load ptr, ptr %a, align 8
  %cmp.i.i = icmp eq ptr %0, null
  br i1 %cmp.i.i, label %invoke.cont, label %if.end.i.i

if.end.i.i:                                       ; preds = %for.cond
  %arrayidx.i.i = getelementptr inbounds i8, ptr %0, i64 -4
  %1 = load i32, ptr %arrayidx.i.i, align 4
  br label %invoke.cont

invoke.cont:                                      ; preds = %if.end.i.i, %for.cond
  %retval.0.i.i = phi i32 [ %1, %if.end.i.i ], [ 0, %for.cond ]
  %cmp = icmp ult i32 %i.0, %retval.0.i.i
  br i1 %cmp, label %for.body, label %for.end

for.body:                                         ; preds = %invoke.cont
  %2 = load ptr, ptr @_ZN8rational13g_mpq_managerE, align 8
  %call.i.i4 = invoke noundef zeroext i1 @_ZN11mpz_managerILb1EE7get_bitERK3mpzj(ptr noundef nonnull align 8 dereferenceable(600) %2, ptr noundef nonnull align 8 dereferenceable(16) %val, i32 noundef %i.0)
          to label %invoke.cont2 unwind label %lpad.loopexit

invoke.cont2:                                     ; preds = %for.body
  %frombool = zext i1 %call.i.i4 to i8
  %3 = load ptr, ptr %b, align 8
  %cmp.i = icmp eq ptr %3, null
  br i1 %cmp.i, label %if.then.i, label %lor.lhs.false.i

lor.lhs.false.i:                                  ; preds = %invoke.cont2
  %arrayidx.i = getelementptr inbounds i8, ptr %3, i64 -4
  %4 = load i32, ptr %arrayidx.i, align 4
  %arrayidx4.i = getelementptr inbounds i8, ptr %3, i64 -8
  %5 = load i32, ptr %arrayidx4.i, align 4
  %cmp5.i = icmp eq i32 %4, %5
  br i1 %cmp5.i, label %if.then.i, label %for.inc

if.then.i:                                        ; preds = %lor.lhs.false.i, %invoke.cont2
  invoke void @_ZN6vectorIbLb0EjE13expand_vectorEv(ptr noundef nonnull align 8 dereferenceable(8) %b)
          to label %.noexc unwind label %lpad.loopexit

.noexc:                                           ; preds = %if.then.i
  %.pre.i = load ptr, ptr %b, align 8
  %arrayidx8.phi.trans.insert.i = getelementptr inbounds i8, ptr %.pre.i, i64 -4
  %.pre1.i = load i32, ptr %arrayidx8.phi.trans.insert.i, align 4
  br label %for.inc

for.inc:                                          ; preds = %.noexc, %lor.lhs.false.i
  %6 = phi i32 [ %.pre1.i, %.noexc ], [ %4, %lor.lhs.false.i ]
  %7 = phi ptr [ %.pre.i, %.noexc ], [ %3, %lor.lhs.false.i ]
  %idx.ext.i = zext i32 %6 to i64
  %add.ptr.i = getelementptr inbounds i8, ptr %7, i64 %idx.ext.i
  store i8 %frombool, ptr %add.ptr.i, align 1
  %8 = load ptr, ptr %b, align 8
  %arrayidx10.i = getelementptr inbounds i8, ptr %8, i64 -4
  %9 = load i32, ptr %arrayidx10.i, align 4
  %inc.i = add i32 %9, 1
  store i32 %inc.i, ptr %arrayidx10.i, align 4
  %inc = add nuw i32 %i.0, 1
  br label %for.cond, !llvm.loop !385

lpad.loopexit:                                    ; preds = %for.body, %if.then.i
  %lpad.loopexit5 = landingpad { ptr, i32 }
          cleanup
  br label %lpad

lpad.loopexit.split-lp:                           ; preds = %for.end
  %lpad.loopexit.split-lp6 = landingpad { ptr, i32 }
          cleanup
  br label %lpad

lpad:                                             ; preds = %lpad.loopexit.split-lp, %lpad.loopexit
  %lpad.phi = phi { ptr, i32 } [ %lpad.loopexit5, %lpad.loopexit ], [ %lpad.loopexit.split-lp6, %lpad.loopexit.split-lp ]
  call void @_ZN7svectorIbjED2Ev(ptr noundef nonnull align 8 dereferenceable(8) %b) #24
  resume { ptr, i32 } %lpad.phi

for.end:                                          ; preds = %invoke.cont
  invoke void @_ZN2dd11bdd_manager6mk_mulERKNS_4bddvERK7svectorIbjE(ptr sret(%"class.dd::bddv") align 8 %agg.result, ptr noundef nonnull align 8 dereferenceable(728) %this, ptr noundef nonnull align 8 dereferenceable(16) %a, ptr noundef nonnull align 8 dereferenceable(8) %b)
          to label %invoke.cont6 unwind label %lpad.loopexit.split-lp

invoke.cont6:                                     ; preds = %for.end
  %10 = load ptr, ptr %b, align 8
  %tobool.not.i.i.i = icmp eq ptr %10, null
  br i1 %tobool.not.i.i.i, label %_ZN7svectorIbjED2Ev.exit, label %if.then.i.i.i

if.then.i.i.i:                                    ; preds = %invoke.cont6
  %add.ptr.i.i.i.i = getelementptr inbounds i8, ptr %10, i64 -8
  invoke void @_ZN6memory10deallocateEPv(ptr noundef nonnull %add.ptr.i.i.i.i)
          to label %_ZN7svectorIbjED2Ev.exit unwind label %terminate.lpad.i.i

terminate.lpad.i.i:                               ; preds = %if.then.i.i.i
  %11 = landingpad { ptr, i32 }
          catch ptr null
  %12 = extractvalue { ptr, i32 } %11, 0
  call void @__clang_call_terminate(ptr %12) #26
  unreachable

_ZN7svectorIbjED2Ev.exit:                         ; preds = %invoke.cont6, %if.then.i.i.i
  ret void
}